target datalayout = "e-m:e-p270:32:32-p271:32:32-p272:64:64-i64:64-i128:128-f80:128-n8:16:32:64-S128"
target triple = "x86_64-pc-linux-gnu"

; Function Attrs: alwaysinline nounwind uwtable
define internal void @color_decorrelation_gbrp(ptr noundef %0, i32 noundef %1, ptr noundef %2, i32 noundef %3, i32 noundef %4, i32 noundef %5) #6 {
  %7 = alloca ptr, align 8
  %8 = alloca i32, align 4
  %9 = alloca ptr, align 8
  %10 = alloca i32, align 4
  %11 = alloca i32, align 4
  %12 = alloca i32, align 4
  %13 = alloca i32, align 4
  %14 = alloca i32, align 4
  %15 = alloca ptr, align 8
  %16 = alloca ptr, align 8
  %17 = alloca ptr, align 8
  %18 = alloca ptr, align 8
  %19 = alloca ptr, align 8
  %20 = alloca ptr, align 8
  store ptr %0, ptr %7, align 8, !tbaa !91
  store i32 %1, ptr %8, align 4, !tbaa !35
  store ptr %2, ptr %9, align 8, !tbaa !93
  store i32 %3, ptr %10, align 4, !tbaa !35
  store i32 %4, ptr %11, align 4, !tbaa !35
  store i32 %5, ptr %12, align 4, !tbaa !35
  call void @llvm.lifetime.start.p0(i64 4, ptr %13) #11
  call void @llvm.lifetime.start.p0(i64 4, ptr %14) #11
  call void @llvm.lifetime.start.p0(i64 8, ptr %15) #11
  %21 = load ptr, ptr %7, align 8, !tbaa !91
  %22 = getelementptr inbounds ptr, ptr %21, i64 0
  %23 = load ptr, ptr %22, align 8, !tbaa !61
  store ptr %23, ptr %15, align 8, !tbaa !61
  call void @llvm.lifetime.start.p0(i64 8, ptr %16) #11
  %24 = load ptr, ptr %7, align 8, !tbaa !91
  %25 = getelementptr inbounds ptr, ptr %24, i64 1
  %26 = load ptr, ptr %25, align 8, !tbaa !61
  store ptr %26, ptr %16, align 8, !tbaa !61
  call void @llvm.lifetime.start.p0(i64 8, ptr %17) #11
  %27 = load ptr, ptr %7, align 8, !tbaa !91
  %28 = getelementptr inbounds ptr, ptr %27, i64 2
  %29 = load ptr, ptr %28, align 8, !tbaa !61
  store ptr %29, ptr %17, align 8, !tbaa !61
  call void @llvm.lifetime.start.p0(i64 8, ptr %18) #11
  %30 = load ptr, ptr %9, align 8, !tbaa !93
  %31 = getelementptr inbounds ptr, ptr %30, i64 2
  %32 = load ptr, ptr %31, align 8, !tbaa !67
  store ptr %32, ptr %18, align 8, !tbaa !67
  call void @llvm.lifetime.start.p0(i64 8, ptr %19) #11
  %33 = load ptr, ptr %9, align 8, !tbaa !93
  %34 = getelementptr inbounds ptr, ptr %33, i64 0
  %35 = load ptr, ptr %34, align 8, !tbaa !67
  store ptr %35, ptr %19, align 8, !tbaa !67
  call void @llvm.lifetime.start.p0(i64 8, ptr %20) #11
  %36 = load ptr, ptr %9, align 8, !tbaa !93
  %37 = getelementptr inbounds ptr, ptr %36, i64 1
  %38 = load ptr, ptr %37, align 8, !tbaa !67
  store ptr %38, ptr %20, align 8, !tbaa !67
  store i32 0, ptr %14, align 4, !tbaa !35
  br label %39

39:                                               ; preds = %153, %6
  %40 = load i32, ptr %14, align 4, !tbaa !35
  %41 = load i32, ptr %12, align 4, !tbaa !35
  %42 = icmp slt i32 %40, %41
  br i1 %42, label %43, label %156

43:                                               ; preds = %39
  store i32 0, ptr %13, align 4, !tbaa !35
  br label %44

44:                                               ; preds = %125, %43
  %45 = load i32, ptr %13, align 4, !tbaa !35
  %46 = load i32, ptr %11, align 4, !tbaa !35
  %47 = icmp slt i32 %45, %46
  br i1 %47, label %48, label %128

48:                                               ; preds = %44
  %49 = load ptr, ptr %18, align 8, !tbaa !67
  %50 = load i32, ptr %13, align 4, !tbaa !35
  %51 = sext i32 %50 to i64
  %52 = getelementptr inbounds i8, ptr %49, i64 %51
  %53 = load i8, ptr %52, align 1, !tbaa !95
  %54 = zext i8 %53 to i32
  %55 = sitofp i32 %54 to float
  %56 = load ptr, ptr %19, align 8, !tbaa !67
  %57 = load i32, ptr %13, align 4, !tbaa !35
  %58 = sext i32 %57 to i64
  %59 = getelementptr inbounds i8, ptr %56, i64 %58
  %60 = load i8, ptr %59, align 1, !tbaa !95
  %61 = zext i8 %60 to i32
  %62 = sitofp i32 %61 to float
  %63 = fmul nsz float %62, 0x3FE279A740000000
  %64 = call nsz float @llvm.fmuladd.f32(float %55, float 0x3FE279A740000000, float %63)
  %65 = load ptr, ptr %20, align 8, !tbaa !67
  %66 = load i32, ptr %13, align 4, !tbaa !35
  %67 = sext i32 %66 to i64
  %68 = getelementptr inbounds i8, ptr %65, i64 %67
  %69 = load i8, ptr %68, align 1, !tbaa !95
  %70 = zext i8 %69 to i32
  %71 = sitofp i32 %70 to float
  %72 = call nsz float @llvm.fmuladd.f32(float %71, float 0x3FE279A740000000, float %64)
  %73 = load ptr, ptr %15, align 8, !tbaa !61
  %74 = load i32, ptr %13, align 4, !tbaa !35
  %75 = sext i32 %74 to i64
  %76 = getelementptr inbounds float, ptr %73, i64 %75
  store float %72, ptr %76, align 4, !tbaa !81
  %77 = load ptr, ptr %18, align 8, !tbaa !67
  %78 = load i32, ptr %13, align 4, !tbaa !35
  %79 = sext i32 %78 to i64
  %80 = getelementptr inbounds i8, ptr %77, i64 %79
  %81 = load i8, ptr %80, align 1, !tbaa !95
  %82 = zext i8 %81 to i32
  %83 = sitofp i32 %82 to float
  %84 = load ptr, ptr %20, align 8, !tbaa !67
  %85 = load i32, ptr %13, align 4, !tbaa !35
  %86 = sext i32 %85 to i64
  %87 = getelementptr inbounds i8, ptr %84, i64 %86
  %88 = load i8, ptr %87, align 1, !tbaa !95
  %89 = zext i8 %88 to i32
  %90 = sitofp i32 %89 to float
  %91 = fmul nsz float %90, 0xBFE6A09E60000000
  %92 = call nsz float @llvm.fmuladd.f32(float %83, float 0x3FE6A09E60000000, float %91)
  %93 = load ptr, ptr %16, align 8, !tbaa !61
  %94 = load i32, ptr %13, align 4, !tbaa !35
  %95 = sext i32 %94 to i64
  %96 = getelementptr inbounds float, ptr %93, i64 %95
  store float %92, ptr %96, align 4, !tbaa !81
  %97 = load ptr, ptr %18, align 8, !tbaa !67
  %98 = load i32, ptr %13, align 4, !tbaa !35
  %99 = sext i32 %98 to i64
  %100 = getelementptr inbounds i8, ptr %97, i64 %99
  %101 = load i8, ptr %100, align 1, !tbaa !95
  %102 = zext i8 %101 to i32
  %103 = sitofp i32 %102 to float
  %104 = load ptr, ptr %19, align 8, !tbaa !67
  %105 = load i32, ptr %13, align 4, !tbaa !35
  %106 = sext i32 %105 to i64
  %107 = getelementptr inbounds i8, ptr %104, i64 %106
  %108 = load i8, ptr %107, align 1, !tbaa !95
  %109 = zext i8 %108 to i32
  %110 = sitofp i32 %109 to float
  %111 = fmul nsz float %110, 0xBFEA20BD80000000
  %112 = call nsz float @llvm.fmuladd.f32(float %103, float 0x3FDA20BD80000000, float %111)
  %113 = load ptr, ptr %20, align 8, !tbaa !67
  %114 = load i32, ptr %13, align 4, !tbaa !35
  %115 = sext i32 %114 to i64
  %116 = getelementptr inbounds i8, ptr %113, i64 %115
  %117 = load i8, ptr %116, align 1, !tbaa !95
  %118 = zext i8 %117 to i32
  %119 = sitofp i32 %118 to float
  %120 = call nsz float @llvm.fmuladd.f32(float %119, float 0x3FDA20BD80000000, float %112)
  %121 = load ptr, ptr %17, align 8, !tbaa !61
  %122 = load i32, ptr %13, align 4, !tbaa !35
  %123 = sext i32 %122 to i64
  %124 = getelementptr inbounds float, ptr %121, i64 %123
  store float %120, ptr %124, align 4, !tbaa !81
  br label %125

125:                                              ; preds = %48
  %126 = load i32, ptr %13, align 4, !tbaa !35
  %127 = add nsw i32 %126, 1
  store i32 %127, ptr %13, align 4, !tbaa !35
  br label %44, !llvm.loop !96

128:                                              ; preds = %44
  %129 = load i32, ptr %10, align 4, !tbaa !35
  %130 = load ptr, ptr %18, align 8, !tbaa !67
  %131 = sext i32 %129 to i64
  %132 = getelementptr inbounds i8, ptr %130, i64 %131
  store ptr %132, ptr %18, align 8, !tbaa !67
  %133 = load i32, ptr %10, align 4, !tbaa !35
  %134 = load ptr, ptr %19, align 8, !tbaa !67
  %135 = sext i32 %133 to i64
  %136 = getelementptr inbounds i8, ptr %134, i64 %135
  store ptr %136, ptr %19, align 8, !tbaa !67
  %137 = load i32, ptr %10, align 4, !tbaa !35
  %138 = load ptr, ptr %20, align 8, !tbaa !67
  %139 = sext i32 %137 to i64
  %140 = getelementptr inbounds i8, ptr %138, i64 %139
  store ptr %140, ptr %20, align 8, !tbaa !67
  %141 = load i32, ptr %8, align 4, !tbaa !35
  %142 = load ptr, ptr %15, align 8, !tbaa !61
  %143 = sext i32 %141 to i64
  %144 = getelementptr inbounds float, ptr %142, i64 %143
  store ptr %144, ptr %15, align 8, !tbaa !61
  %145 = load i32, ptr %8, align 4, !tbaa !35
  %146 = load ptr, ptr %16, align 8, !tbaa !61
  %147 = sext i32 %145 to i64
  %148 = getelementptr inbounds float, ptr %146, i64 %147
  store ptr %148, ptr %16, align 8, !tbaa !61
  %149 = load i32, ptr %8, align 4, !tbaa !35
  %150 = load ptr, ptr %17, align 8, !tbaa !61
  %151 = sext i32 %149 to i64
  %152 = getelementptr inbounds float, ptr %150, i64 %151
  store ptr %152, ptr %17, align 8, !tbaa !61
  br label %153

153:                                              ; preds = %128
  %154 = load i32, ptr %14, align 4, !tbaa !35
  %155 = add nsw i32 %154, 1
  store i32 %155, ptr %14, align 4, !tbaa !35
  br label %39, !llvm.loop !97

156:                                              ; preds = %39
  call void @llvm.lifetime.end.p0(i64 8, ptr %20) #11
  call void @llvm.lifetime.end.p0(i64 8, ptr %19) #11
  call void @llvm.lifetime.end.p0(i64 8, ptr %18) #11
  call void @llvm.lifetime.end.p0(i64 8, ptr %17) #11
  call void @llvm.lifetime.end.p0(i64 8, ptr %16) #11
  call void @llvm.lifetime.end.p0(i64 8, ptr %15) #11
  call void @llvm.lifetime.end.p0(i64 4, ptr %14) #11
  call void @llvm.lifetime.end.p0(i64 4, ptr %13) #11
  ret void
}