; Function Attrs: alwaysinline nofree norecurse nosync nounwind memory(readwrite, inaccessiblemem: none) uwtable
define internal void @color_decorrelation_gbrp(ptr noundef readonly captures(none) %0, i32 noundef %1, ptr noundef readonly captures(none) %2, i32 noundef %3, i32 noundef %4, i32 noundef %5) #7 {
  %7 = icmp sgt i32 %5, 0
  br i1 %7, label %.preheader.lr.ph, label %._crit_edge60

.preheader.lr.ph:                                 ; preds = %6
  %8 = icmp sgt i32 %4, 0
  %9 = sext i32 %3 to i64
  %10 = sext i32 %1 to i64
  br i1 %8, label %.preheader.us.preheader, label %._crit_edge60

.preheader.us.preheader:                          ; preds = %.preheader.lr.ph
  %11 = load ptr, ptr %0, align 8, !tbaa !57
  %12 = getelementptr inbounds nuw i8, ptr %0, i64 8
  %13 = load ptr, ptr %12, align 8, !tbaa !57
  %14 = getelementptr inbounds nuw i8, ptr %0, i64 16
  %15 = load ptr, ptr %14, align 8, !tbaa !57
  %16 = getelementptr inbounds nuw i8, ptr %2, i64 16
  %17 = load ptr, ptr %16, align 8, !tbaa !63
  %18 = load ptr, ptr %2, align 8, !tbaa !63
  %19 = getelementptr inbounds nuw i8, ptr %2, i64 8
  %20 = load ptr, ptr %19, align 8, !tbaa !63
  %wide.trip.count = zext nneg i32 %4 to i64
  br label %.preheader.us

.preheader.us:                                    ; preds = %.preheader.us.preheader, %._crit_edge.us
  %.059.us = phi ptr [ %54, %._crit_edge.us ], [ %20, %.preheader.us.preheader ]
  %.04558.us = phi ptr [ %53, %._crit_edge.us ], [ %18, %.preheader.us.preheader ]
  %.04657.us = phi ptr [ %52, %._crit_edge.us ], [ %17, %.preheader.us.preheader ]
  %.04756.us = phi ptr [ %57, %._crit_edge.us ], [ %15, %.preheader.us.preheader ]
  %.04855.us = phi ptr [ %56, %._crit_edge.us ], [ %13, %.preheader.us.preheader ]
  %.04954.us = phi ptr [ %55, %._crit_edge.us ], [ %11, %.preheader.us.preheader ]
  %.05053.us = phi i32 [ %58, %._crit_edge.us ], [ 0, %.preheader.us.preheader ]
  br label %21

21:                                               ; preds = %.preheader.us, %21
  %indvars.iv = phi i64 [ 0, %.preheader.us ], [ %indvars.iv.next, %21 ]
  %22 = getelementptr inbounds nuw i8, ptr %.04657.us, i64 %indvars.iv
  %23 = load i8, ptr %22, align 1, !tbaa !83
  %24 = uitofp i8 %23 to float
  %25 = getelementptr inbounds nuw i8, ptr %.04558.us, i64 %indvars.iv
  %26 = load i8, ptr %25, align 1, !tbaa !83
  %27 = uitofp i8 %26 to float
  %28 = fmul nsz float %27, 0x3FE279A740000000
  %29 = tail call nsz float @llvm.fmuladd.f32(float %24, float 0x3FE279A740000000, float %28)
  %30 = getelementptr inbounds nuw i8, ptr %.059.us, i64 %indvars.iv
  %31 = load i8, ptr %30, align 1, !tbaa !83
  %32 = uitofp i8 %31 to float
  %33 = tail call nsz float @llvm.fmuladd.f32(float %32, float 0x3FE279A740000000, float %29)
  %34 = getelementptr inbounds nuw float, ptr %.04954.us, i64 %indvars.iv
  store float %33, ptr %34, align 4, !tbaa !74
  %35 = load i8, ptr %22, align 1, !tbaa !83
  %36 = uitofp i8 %35 to float
  %37 = load i8, ptr %30, align 1, !tbaa !83
  %38 = uitofp i8 %37 to float
  %39 = fmul nsz float %38, 0xBFE6A09E60000000
  %40 = tail call nsz float @llvm.fmuladd.f32(float %36, float 0x3FE6A09E60000000, float %39)
  %41 = getelementptr inbounds nuw float, ptr %.04855.us, i64 %indvars.iv
  store float %40, ptr %41, align 4, !tbaa !74
  %42 = load i8, ptr %22, align 1, !tbaa !83
  %43 = uitofp i8 %42 to float
  %44 = load i8, ptr %25, align 1, !tbaa !83
  %45 = uitofp i8 %44 to float
  %46 = fmul nsz float %45, 0xBFEA20BD80000000
  %47 = tail call nsz float @llvm.fmuladd.f32(float %43, float 0x3FDA20BD80000000, float %46)
  %48 = load i8, ptr %30, align 1, !tbaa !83
  %49 = uitofp i8 %48 to float
  %50 = tail call nsz float @llvm.fmuladd.f32(float %49, float 0x3FDA20BD80000000, float %47)
  %51 = getelementptr inbounds nuw float, ptr %.04756.us, i64 %indvars.iv
  store float %50, ptr %51, align 4, !tbaa !74
  %indvars.iv.next = add nuw nsw i64 %indvars.iv, 1
  %exitcond.not = icmp eq i64 %indvars.iv.next, %wide.trip.count
  br i1 %exitcond.not, label %._crit_edge.us, label %21, !llvm.loop !88

._crit_edge.us:                                   ; preds = %21
  %52 = getelementptr inbounds i8, ptr %.04657.us, i64 %9
  %53 = getelementptr inbounds i8, ptr %.04558.us, i64 %9
  %54 = getelementptr inbounds i8, ptr %.059.us, i64 %9
  %55 = getelementptr inbounds float, ptr %.04954.us, i64 %10
  %56 = getelementptr inbounds float, ptr %.04855.us, i64 %10
  %57 = getelementptr inbounds float, ptr %.04756.us, i64 %10
  %58 = add nuw nsw i32 %.05053.us, 1
  %exitcond63.not = icmp eq i32 %58, %5
  br i1 %exitcond63.not, label %._crit_edge60, label %.preheader.us, !llvm.loop !89

._crit_edge60:                                    ; preds = %._crit_edge.us, %.preheader.lr.ph, %6
  ret void
}